; Function Attrs: mustprogress nofree norecurse nosync nounwind willreturn memory(readwrite, inaccessiblemem: none) uwtable
define internal ptr @arrayexpr_next_fn(ptr noundef readonly captures(none) %0) #6 {
  %2 = load ptr, ptr %0, align 8
  %3 = getelementptr inbounds nuw i8, ptr %2, i64 48
  %4 = load ptr, ptr %3, align 8
  %5 = icmp eq ptr %4, null
  br i1 %5, label %21, label %6

6:                                                ; preds = %1
  %7 = load ptr, ptr %4, align 8
  %8 = getelementptr inbounds nuw i8, ptr %2, i64 32
  %9 = load ptr, ptr %8, align 8
  %10 = getelementptr i8, ptr %9, i64 16
  %.val = load ptr, ptr %10, align 8
  %11 = getelementptr inbounds nuw i8, ptr %.val, i64 8
  store ptr %7, ptr %11, align 8
  %12 = getelementptr inbounds nuw i8, ptr %0, i64 8
  %13 = load ptr, ptr %12, align 8
  %14 = load ptr, ptr %3, align 8
  %15 = getelementptr i8, ptr %13, i64 4
  %.val10 = load i32, ptr %15, align 4
  %16 = getelementptr i8, ptr %13, i64 16
  %.val11 = load ptr, ptr %16, align 8
  %17 = getelementptr inbounds nuw i8, ptr %14, i64 8
  %18 = sext i32 %.val10 to i64
  %19 = getelementptr inbounds %union.ListCell, ptr %.val11, i64 %18
  %20 = icmp ult ptr %17, %19
  %..i = select i1 %20, ptr %17, ptr null
  store ptr %..i, ptr %3, align 8
  br label %21

21:                                               ; preds = %1, %6
  %.0 = phi ptr [ %2, %6 ], [ null, %1 ]
  ret ptr %.0
}